target datalayout = "e-m:e-p270:32:32-p271:32:32-p272:64:64-i64:64-i128:128-f80:128-n8:16:32:64-S128"
target triple = "x86_64-pc-linux-gnu"

%"class.Imath_3_2::Box" = type { %"class.Imath_3_2::Vec2.0", %"class.Imath_3_2::Vec2.0" }
%"class.Imath_3_2::Vec2.0" = type { i32, i32 }
%"class.std::__cxx11::basic_string" = type { %"struct.std::__cxx11::basic_string<char>::_Alloc_hider", i64, %union.anon }
%"struct.std::__cxx11::basic_string<char>::_Alloc_hider" = type { ptr }
%union.anon = type { i64, [8 x i8] }
%"class.Imf_3_4::RgbaInputFile" = type { ptr, ptr, ptr, ptr, %"class.std::__cxx11::basic_string" }
%"struct.Imf_3_4::Rgba" = type { %"class.Imath_3_2::half", %"class.Imath_3_2::half", %"class.Imath_3_2::half", %"class.Imath_3_2::half" }
%"class.Imath_3_2::half" = type { i16 }
%"class.Imf_3_4::Array2D" = type { i64, i64, ptr }

; Function Attrs: mustprogress nounwind uwtable
define linkonce_odr dso_local void @_ZN7Imf_3_44RgbaC2Ev(ptr noundef nonnull align 2 dereferenceable(8) %0) unnamed_addr #7 comdat align 2 {
  %2 = alloca ptr, align 8
  store ptr %0, ptr %2, align 8, !tbaa !9
  ret void
}

; Function Attrs: inlinehint mustprogress nounwind uwtable
define linkonce_odr dso_local void @_ZN9Imath_3_24Vec2IiEC2ERKS1_(ptr noundef nonnull align 4 dereferenceable(8) %0, ptr noundef nonnull align 4 dereferenceable(8) %1) unnamed_addr #6 comdat align 2 {
  %3 = alloca ptr, align 8
  %4 = alloca ptr, align 8
  store ptr %0, ptr %3, align 8, !tbaa !26
  store ptr %1, ptr %4, align 8, !tbaa !26
  %5 = load ptr, ptr %3, align 8
  %6 = getelementptr inbounds nuw %"class.Imath_3_2::Vec2.0", ptr %5, i32 0, i32 0
  %7 = load ptr, ptr %4, align 8, !tbaa !26
  %8 = getelementptr inbounds nuw %"class.Imath_3_2::Vec2.0", ptr %7, i32 0, i32 0
  %9 = load i32, ptr %8, align 4, !tbaa !28
  store i32 %9, ptr %6, align 4, !tbaa !28
  %10 = getelementptr inbounds nuw %"class.Imath_3_2::Vec2.0", ptr %5, i32 0, i32 1
  %11 = load ptr, ptr %4, align 8, !tbaa !26
  %12 = getelementptr inbounds nuw %"class.Imath_3_2::Vec2.0", ptr %11, i32 0, i32 1
  %13 = load i32, ptr %12, align 4, !tbaa !29
  store i32 %13, ptr %10, align 4, !tbaa !29
  ret void
}

; Function Attrs: inlinehint mustprogress nounwind uwtable
define linkonce_odr dso_local void @_ZN7Imf_3_47Array2DINS_4RgbaEED2Ev(ptr noundef nonnull align 8 dereferenceable(24) %0) unnamed_addr #6 comdat align 2 {
  %2 = alloca ptr, align 8
  store ptr %0, ptr %2, align 8, !tbaa !36
  %3 = load ptr, ptr %2, align 8
  %4 = getelementptr inbounds nuw %"class.Imf_3_4::Array2D", ptr %3, i32 0, i32 2
  %5 = load ptr, ptr %4, align 8, !tbaa !44
  %6 = icmp eq ptr %5, null
  br i1 %6, label %8, label %7

7:                                                ; preds = %1
  call void @_ZdaPv(ptr noundef %5) #21
  br label %8

8:                                                ; preds = %7, %1
  ret void
}

; Function Attrs: inlinehint mustprogress nounwind uwtable
define linkonce_odr dso_local noundef nonnull align 4 dereferenceable(4) ptr @_ZSt3minIiERKT_S2_S2_(ptr noundef nonnull align 4 dereferenceable(4) %0, ptr noundef nonnull align 4 dereferenceable(4) %1) #6 comdat {
  %3 = alloca ptr, align 8
  %4 = alloca ptr, align 8
  %5 = alloca ptr, align 8
  store ptr %0, ptr %4, align 8, !tbaa !38
  store ptr %1, ptr %5, align 8, !tbaa !38
  %6 = load ptr, ptr %5, align 8, !tbaa !38
  %7 = load i32, ptr %6, align 4, !tbaa !11
  %8 = load ptr, ptr %4, align 8, !tbaa !38
  %9 = load i32, ptr %8, align 4, !tbaa !11
  %10 = icmp slt i32 %7, %9
  br i1 %10, label %11, label %13

11:                                               ; preds = %2
  %12 = load ptr, ptr %5, align 8, !tbaa !38
  store ptr %12, ptr %3, align 8
  br label %15

13:                                               ; preds = %2
  %14 = load ptr, ptr %4, align 8, !tbaa !38
  store ptr %14, ptr %3, align 8
  br label %15

15:                                               ; preds = %13, %11
  %16 = load ptr, ptr %3, align 8
  ret ptr %16
}

; Function Attrs: inlinehint mustprogress nounwind uwtable
define linkonce_odr dso_local noundef ptr @_ZN7Imf_3_47Array2DINS_4RgbaEEixEl(ptr noundef nonnull align 8 dereferenceable(24) %0, i64 noundef %1) #6 comdat align 2 {
  %3 = alloca ptr, align 8
  %4 = alloca i64, align 8
  store ptr %0, ptr %3, align 8, !tbaa !36
  store i64 %1, ptr %4, align 8, !tbaa !42
  %5 = load ptr, ptr %3, align 8
  %6 = getelementptr inbounds nuw %"class.Imf_3_4::Array2D", ptr %5, i32 0, i32 2
  %7 = load ptr, ptr %6, align 8, !tbaa !44
  %8 = load i64, ptr %4, align 8, !tbaa !42
  %9 = getelementptr inbounds nuw %"class.Imf_3_4::Array2D", ptr %5, i32 0, i32 1
  %10 = load i64, ptr %9, align 8, !tbaa !47
  %11 = mul nsw i64 %8, %10
  %12 = getelementptr inbounds %"struct.Imf_3_4::Rgba", ptr %7, i64 %11
  ret ptr %12
}

; Function Attrs: inlinehint mustprogress uwtable
define linkonce_odr dso_local void @_ZN7Imf_3_47Array2DINS_4RgbaEEC2Ell(ptr noundef nonnull align 8 dereferenceable(24) %0, i64 noundef %1, i64 noundef %2) unnamed_addr #8 comdat align 2 personality ptr @__gxx_personality_v0 {
  %4 = alloca ptr, align 8
  %5 = alloca i64, align 8
  %6 = alloca i64, align 8
  %7 = alloca ptr, align 8
  %8 = alloca i32, align 4
  store ptr %0, ptr %4, align 8, !tbaa !36
  store i64 %1, ptr %5, align 8, !tbaa !42
  store i64 %2, ptr %6, align 8, !tbaa !42
  %9 = load ptr, ptr %4, align 8
  %10 = getelementptr inbounds nuw %"class.Imf_3_4::Array2D", ptr %9, i32 0, i32 0
  %11 = load i64, ptr %5, align 8, !tbaa !42
  store i64 %11, ptr %10, align 8, !tbaa !46
  %12 = getelementptr inbounds nuw %"class.Imf_3_4::Array2D", ptr %9, i32 0, i32 1
  %13 = load i64, ptr %6, align 8, !tbaa !42
  store i64 %13, ptr %12, align 8, !tbaa !47
  %14 = getelementptr inbounds nuw %"class.Imf_3_4::Array2D", ptr %9, i32 0, i32 2
  %15 = load i64, ptr %5, align 8, !tbaa !42
  %16 = load i64, ptr %6, align 8, !tbaa !42
  %17 = mul nsw i64 %15, %16
  %18 = call { i64, i1 } @llvm.umul.with.overflow.i64(i64 %17, i64 8)
  %19 = extractvalue { i64, i1 } %18, 1
  %20 = extractvalue { i64, i1 } %18, 0
  %21 = select i1 %19, i64 -1, i64 %20
  %22 = call noalias noundef nonnull ptr @_Znam(i64 noundef %21) #20
  %23 = icmp eq i64 %17, 0
  br i1 %23, label %31, label %24

24:                                               ; preds = %3
  %25 = getelementptr inbounds %"struct.Imf_3_4::Rgba", ptr %22, i64 %17
  br label %26

26:                                               ; preds = %28, %24
  %27 = phi ptr [ %22, %24 ], [ %29, %28 ]
  invoke void @_ZN7Imf_3_44RgbaC2Ev(ptr noundef nonnull align 2 dereferenceable(8) %27)
          to label %28 unwind label %32

28:                                               ; preds = %26
  %29 = getelementptr inbounds %"struct.Imf_3_4::Rgba", ptr %27, i64 1
  %30 = icmp eq ptr %29, %25
  br i1 %30, label %31, label %26

31:                                               ; preds = %3, %28
  store ptr %22, ptr %14, align 8, !tbaa !44
  ret void

32:                                               ; preds = %26
  %33 = landingpad { ptr, i32 }
          cleanup
  %34 = extractvalue { ptr, i32 } %33, 0
  store ptr %34, ptr %7, align 8
  %35 = extractvalue { ptr, i32 } %33, 1
  store i32 %35, ptr %8, align 4
  call void @_ZdaPvm(ptr noundef %22, i64 noundef %21) #21
  br label %36

36:                                               ; preds = %32
  %37 = load ptr, ptr %7, align 8
  %38 = load i32, ptr %8, align 4
  %39 = insertvalue { ptr, i32 } poison, ptr %37, 0
  %40 = insertvalue { ptr, i32 } %39, i32 %38, 1
  resume { ptr, i32 } %40
}

; Function Attrs: inlinehint mustprogress nounwind uwtable
define linkonce_odr dso_local void @_ZN9Imath_3_23BoxINS_4Vec2IiEEEC2ERKS3_(ptr noundef nonnull align 4 dereferenceable(16) %0, ptr noundef nonnull align 4 dereferenceable(16) %1) unnamed_addr #6 comdat align 2 {
  %3 = alloca ptr, align 8
  %4 = alloca ptr, align 8
  store ptr %0, ptr %3, align 8, !tbaa !20
  store ptr %1, ptr %4, align 8, !tbaa !20
  %5 = load ptr, ptr %3, align 8
  %6 = getelementptr inbounds nuw %"class.Imath_3_2::Box", ptr %5, i32 0, i32 0
  %7 = load ptr, ptr %4, align 8, !tbaa !20
  %8 = getelementptr inbounds nuw %"class.Imath_3_2::Box", ptr %7, i32 0, i32 0
  call void @_ZN9Imath_3_24Vec2IiEC2ERKS1_(ptr noundef nonnull align 4 dereferenceable(8) %6, ptr noundef nonnull align 4 dereferenceable(8) %8) #3
  %9 = getelementptr inbounds nuw %"class.Imath_3_2::Box", ptr %5, i32 0, i32 1
  %10 = load ptr, ptr %4, align 8, !tbaa !20
  %11 = getelementptr inbounds nuw %"class.Imath_3_2::Box", ptr %10, i32 0, i32 1
  call void @_ZN9Imath_3_24Vec2IiEC2ERKS1_(ptr noundef nonnull align 4 dereferenceable(8) %9, ptr noundef nonnull align 4 dereferenceable(8) %11) #3
  ret void
}

; Function Attrs: mustprogress uwtable
define dso_local void @_Z9readRgba2PKc(ptr noundef %0) #4 personality ptr @__gxx_personality_v0 {
  %2 = alloca ptr, align 8
  %3 = alloca %"class.Imf_3_4::RgbaInputFile", align 8
  %4 = alloca %"class.Imath_3_2::Box", align 4
  %5 = alloca ptr, align 8
  %6 = alloca i32, align 4
  %7 = alloca i32, align 4
  %8 = alloca %"class.Imf_3_4::Array2D", align 8
  %9 = alloca i32, align 4
  store ptr %0, ptr %2, align 8, !tbaa !4
  call void @llvm.lifetime.start.p0(i64 64, ptr %3) #3
  %10 = load ptr, ptr %2, align 8, !tbaa !4
  %11 = call noundef i32 @_ZN7Imf_3_417globalThreadCountEv()
  call void @_ZN7Imf_3_413RgbaInputFileC1EPKci(ptr noundef nonnull align 8 dereferenceable(64) %3, ptr noundef %10, i32 noundef %11)
  call void @llvm.lifetime.start.p0(i64 16, ptr %4) #3
  %12 = invoke noundef nonnull align 4 dereferenceable(16) ptr @_ZNK7Imf_3_413RgbaInputFile10dataWindowEv(ptr noundef nonnull align 8 dereferenceable(64) %3)
          to label %13 unwind label %71

13:                                               ; preds = %1
  call void @_ZN9Imath_3_23BoxINS_4Vec2IiEEEC2ERKS3_(ptr noundef nonnull align 4 dereferenceable(16) %4, ptr noundef nonnull align 4 dereferenceable(16) %12) #3
  call void @llvm.lifetime.start.p0(i64 4, ptr %7) #3
  %14 = getelementptr inbounds nuw %"class.Imath_3_2::Box", ptr %4, i32 0, i32 1
  %15 = getelementptr inbounds nuw %"class.Imath_3_2::Vec2.0", ptr %14, i32 0, i32 0
  %16 = load i32, ptr %15, align 4, !tbaa !40
  %17 = getelementptr inbounds nuw %"class.Imath_3_2::Box", ptr %4, i32 0, i32 0
  %18 = getelementptr inbounds nuw %"class.Imath_3_2::Vec2.0", ptr %17, i32 0, i32 0
  %19 = load i32, ptr %18, align 4, !tbaa !41
  %20 = sub nsw i32 %16, %19
  %21 = add nsw i32 %20, 1
  store i32 %21, ptr %7, align 4, !tbaa !11
  call void @llvm.lifetime.start.p0(i64 24, ptr %8) #3
  %22 = load i32, ptr %7, align 4, !tbaa !11
  %23 = sext i32 %22 to i64
  invoke void @_ZN7Imf_3_47Array2DINS_4RgbaEEC2Ell(ptr noundef nonnull align 8 dereferenceable(24) %8, i64 noundef 10, i64 noundef %23)
          to label %24 unwind label %75

24:                                               ; preds = %13
  br label %25

25:                                               ; preds = %66, %24
  %26 = getelementptr inbounds nuw %"class.Imath_3_2::Box", ptr %4, i32 0, i32 0
  %27 = getelementptr inbounds nuw %"class.Imath_3_2::Vec2.0", ptr %26, i32 0, i32 1
  %28 = load i32, ptr %27, align 4, !tbaa !25
  %29 = getelementptr inbounds nuw %"class.Imath_3_2::Box", ptr %4, i32 0, i32 1
  %30 = getelementptr inbounds nuw %"class.Imath_3_2::Vec2.0", ptr %29, i32 0, i32 1
  %31 = load i32, ptr %30, align 4, !tbaa !22
  %32 = icmp sle i32 %28, %31
  br i1 %32, label %33, label %87

33:                                               ; preds = %25
  %34 = invoke noundef ptr @_ZN7Imf_3_47Array2DINS_4RgbaEEixEl(ptr noundef nonnull align 8 dereferenceable(24) %8, i64 noundef 0)
          to label %35 unwind label %79

35:                                               ; preds = %33
  %36 = getelementptr inbounds %"struct.Imf_3_4::Rgba", ptr %34, i64 0
  %37 = getelementptr inbounds nuw %"class.Imath_3_2::Box", ptr %4, i32 0, i32 0
  %38 = getelementptr inbounds nuw %"class.Imath_3_2::Vec2.0", ptr %37, i32 0, i32 0
  %39 = load i32, ptr %38, align 4, !tbaa !41
  %40 = sext i32 %39 to i64
  %41 = sub i64 0, %40
  %42 = getelementptr inbounds %"struct.Imf_3_4::Rgba", ptr %36, i64 %41
  %43 = getelementptr inbounds nuw %"class.Imath_3_2::Box", ptr %4, i32 0, i32 0
  %44 = getelementptr inbounds nuw %"class.Imath_3_2::Vec2.0", ptr %43, i32 0, i32 1
  %45 = load i32, ptr %44, align 4, !tbaa !25
  %46 = load i32, ptr %7, align 4, !tbaa !11
  %47 = mul nsw i32 %45, %46
  %48 = sext i32 %47 to i64
  %49 = sub i64 0, %48
  %50 = getelementptr inbounds %"struct.Imf_3_4::Rgba", ptr %42, i64 %49
  %51 = load i32, ptr %7, align 4, !tbaa !11
  %52 = sext i32 %51 to i64
  invoke void @_ZN7Imf_3_413RgbaInputFile14setFrameBufferEPNS_4RgbaEmm(ptr noundef nonnull align 8 dereferenceable(64) %3, ptr noundef %50, i64 noundef 1, i64 noundef %52)
          to label %53 unwind label %79

53:                                               ; preds = %35
  %54 = getelementptr inbounds nuw %"class.Imath_3_2::Box", ptr %4, i32 0, i32 0
  %55 = getelementptr inbounds nuw %"class.Imath_3_2::Vec2.0", ptr %54, i32 0, i32 1
  %56 = load i32, ptr %55, align 4, !tbaa !25
  call void @llvm.lifetime.start.p0(i64 4, ptr %9) #3
  %57 = getelementptr inbounds nuw %"class.Imath_3_2::Box", ptr %4, i32 0, i32 0
  %58 = getelementptr inbounds nuw %"class.Imath_3_2::Vec2.0", ptr %57, i32 0, i32 1
  %59 = load i32, ptr %58, align 4, !tbaa !25
  %60 = add nsw i32 %59, 9
  store i32 %60, ptr %9, align 4, !tbaa !11
  %61 = getelementptr inbounds nuw %"class.Imath_3_2::Box", ptr %4, i32 0, i32 1
  %62 = getelementptr inbounds nuw %"class.Imath_3_2::Vec2.0", ptr %61, i32 0, i32 1
  %63 = invoke noundef nonnull align 4 dereferenceable(4) ptr @_ZSt3minIiERKT_S2_S2_(ptr noundef nonnull align 4 dereferenceable(4) %9, ptr noundef nonnull align 4 dereferenceable(4) %62)
          to label %64 unwind label %83

64:                                               ; preds = %53
  %65 = load i32, ptr %63, align 4, !tbaa !11
  invoke void @_ZN7Imf_3_413RgbaInputFile10readPixelsEii(ptr noundef nonnull align 8 dereferenceable(64) %3, i32 noundef %56, i32 noundef %65)
          to label %66 unwind label %83

66:                                               ; preds = %64
  call void @llvm.lifetime.end.p0(i64 4, ptr %9) #3
  %67 = getelementptr inbounds nuw %"class.Imath_3_2::Box", ptr %4, i32 0, i32 0
  %68 = getelementptr inbounds nuw %"class.Imath_3_2::Vec2.0", ptr %67, i32 0, i32 1
  %69 = load i32, ptr %68, align 4, !tbaa !25
  %70 = add nsw i32 %69, 10
  store i32 %70, ptr %68, align 4, !tbaa !25
  br label %25, !llvm.loop !48

71:                                               ; preds = %1
  %72 = landingpad { ptr, i32 }
          cleanup
  %73 = extractvalue { ptr, i32 } %72, 0
  store ptr %73, ptr %5, align 8
  %74 = extractvalue { ptr, i32 } %72, 1
  store i32 %74, ptr %6, align 4
  br label %90

75:                                               ; preds = %13
  %76 = landingpad { ptr, i32 }
          cleanup
  %77 = extractvalue { ptr, i32 } %76, 0
  store ptr %77, ptr %5, align 8
  %78 = extractvalue { ptr, i32 } %76, 1
  store i32 %78, ptr %6, align 4
  br label %89

79:                                               ; preds = %35, %33
  %80 = landingpad { ptr, i32 }
          cleanup
  %81 = extractvalue { ptr, i32 } %80, 0
  store ptr %81, ptr %5, align 8
  %82 = extractvalue { ptr, i32 } %80, 1
  store i32 %82, ptr %6, align 4
  br label %88

83:                                               ; preds = %64, %53
  %84 = landingpad { ptr, i32 }
          cleanup
  %85 = extractvalue { ptr, i32 } %84, 0
  store ptr %85, ptr %5, align 8
  %86 = extractvalue { ptr, i32 } %84, 1
  store i32 %86, ptr %6, align 4
  call void @llvm.lifetime.end.p0(i64 4, ptr %9) #3
  br label %88

87:                                               ; preds = %25
  call void @_ZN7Imf_3_47Array2DINS_4RgbaEED2Ev(ptr noundef nonnull align 8 dereferenceable(24) %8) #3
  call void @llvm.lifetime.end.p0(i64 24, ptr %8) #3
  call void @llvm.lifetime.end.p0(i64 4, ptr %7) #3
  call void @llvm.lifetime.end.p0(i64 16, ptr %4) #3
  call void @_ZN7Imf_3_413RgbaInputFileD1Ev(ptr noundef nonnull align 8 dereferenceable(64) %3) #3
  call void @llvm.lifetime.end.p0(i64 64, ptr %3) #3
  ret void

88:                                               ; preds = %83, %79
  call void @_ZN7Imf_3_47Array2DINS_4RgbaEED2Ev(ptr noundef nonnull align 8 dereferenceable(24) %8) #3
  br label %89

89:                                               ; preds = %88, %75
  call void @llvm.lifetime.end.p0(i64 24, ptr %8) #3
  call void @llvm.lifetime.end.p0(i64 4, ptr %7) #3
  br label %90

90:                                               ; preds = %89, %71
  call void @llvm.lifetime.end.p0(i64 16, ptr %4) #3
  call void @_ZN7Imf_3_413RgbaInputFileD1Ev(ptr noundef nonnull align 8 dereferenceable(64) %3) #3
  call void @llvm.lifetime.end.p0(i64 64, ptr %3) #3
  br label %91

91:                                               ; preds = %90
  %92 = load ptr, ptr %5, align 8
  %93 = load i32, ptr %6, align 4
  %94 = insertvalue { ptr, i32 } poison, ptr %92, 0
  %95 = insertvalue { ptr, i32 } %94, i32 %93, 1
  resume { ptr, i32 } %95
}